ARM GAS  C:\Users\saman\AppData\Local\Temp\cctTY7nk.s 			page 1


   1              		.syntax unified
   2              		.cpu cortex-m3
   3              		.fpu softvfp
   4              		.eabi_attribute 20, 1
   5              		.eabi_attribute 21, 1
   6              		.eabi_attribute 23, 3
   7              		.eabi_attribute 24, 1
   8              		.eabi_attribute 25, 1
   9              		.eabi_attribute 26, 1
  10              		.eabi_attribute 30, 1
  11              		.eabi_attribute 34, 1
  12              		.eabi_attribute 18, 4
  13              		.thumb
  14              		.syntax unified
  15              		.file	"main.c"
  16              		.text
  17              	.Ltext0:
  18              		.cfi_sections	.debug_frame
  19              		.section	.text.isr_button_RisingEdge_Interrupt,"ax",%progbits
  20              		.align	2
  21              		.global	isr_button_RisingEdge_Interrupt
  22              		.thumb
  23              		.thumb_func
  24              		.type	isr_button_RisingEdge_Interrupt, %function
  25              	isr_button_RisingEdge_Interrupt:
  26              	.LFB121:
  27              		.file 1 "source\\main.c"
   1:source/main.c **** /* ========================================
   2:source/main.c ****  *
   3:source/main.c ****  * Copyright YOUR COMPANY, THE YEAR
   4:source/main.c ****  * All Rights Reserved
   5:source/main.c ****  * UNPUBLISHED, LICENSED SOFTWARE.
   6:source/main.c ****  *
   7:source/main.c ****  * CONFIDENTIAL AND PROPRIETARY INFORMATION
   8:source/main.c ****  * WHICH IS THE PROPERTY OF your company.
   9:source/main.c ****  *
  10:source/main.c ****  * ========================================
  11:source/main.c **** */
  12:source/main.c **** 
  13:source/main.c **** #include "project.h"
  14:source/main.c **** #include "fft_application.h"
  15:source/main.c **** 
  16:source/main.c **** // ISR declarations
  17:source/main.c **** CY_ISR_PROTO(isr_button_RisingEdge_Interrupt);
  18:source/main.c **** CY_ISR_PROTO(isr_UART);
  19:source/main.c **** 
  20:source/main.c **** // Enum for state machine states
  21:source/main.c **** typedef enum
  22:source/main.c **** {
  23:source/main.c ****     IDLE_STATE,
  24:source/main.c ****     SAMPLING_STATE,
  25:source/main.c ****     UART_TRANSFER_STATE
  26:source/main.c **** 
  27:source/main.c **** }STATE_t;
  28:source/main.c **** 
  29:source/main.c **** // State machine function declaration
  30:source/main.c **** void stateMachine();
ARM GAS  C:\Users\saman\AppData\Local\Temp\cctTY7nk.s 			page 2


  31:source/main.c **** 
  32:source/main.c **** // Variable declarations
  33:source/main.c **** volatile uint8 button_pressed = 0; // Push button status
  34:source/main.c **** uint8_t sReceived = 0; // status of s character recieved 
  35:source/main.c **** uint8_t oReceived = 0; // status of o character recieved
  36:source/main.c **** char RxMatlab; // Character recieved from MATLAB
  37:source/main.c **** uint8_t count = 0; // Transfer count
  38:source/main.c **** uint16_t ADC_Array[1024] = {0}; // Array to store ADC data
  39:source/main.c **** STATE_t state = IDLE_STATE; // State machine state initialization
  40:source/main.c **** int32 FFT_SamplesArray[2 * 1024] = {0}; // Array to store FFT samples
  41:source/main.c **** 
  42:source/main.c **** int main(void)
  43:source/main.c **** {
  44:source/main.c ****     CyGlobalIntEnable; /* Enable global interrupts. */
  45:source/main.c ****     
  46:source/main.c ****     isr_button_StartEx(isr_button_RisingEdge_Interrupt);
  47:source/main.c ****     isr_UART_StartEx(isr_UART);
  48:source/main.c ****     
  49:source/main.c ****     //Hardware Init
  50:source/main.c ****     UART_Start();
  51:source/main.c ****     WaveDAC_Start();
  52:source/main.c ****     ADC_Start();
  53:source/main.c ****     ADC_StartConvert();
  54:source/main.c ****     
  55:source/main.c ****     for(;;)
  56:source/main.c ****     {
  57:source/main.c ****         stateMachine();
  58:source/main.c ****     }
  59:source/main.c **** }
  60:source/main.c **** 
  61:source/main.c **** void stateMachine()
  62:source/main.c **** {
  63:source/main.c ****     switch(state)
  64:source/main.c ****     {
  65:source/main.c ****         case IDLE_STATE:
  66:source/main.c ****             count = 0;
  67:source/main.c ****             // Handle LED states
  68:source/main.c ****             Red_LED_Write(1);
  69:source/main.c ****             Yellow_LED_Write(0);     
  70:source/main.c ****             Green_LED_Write(0);
  71:source/main.c ****             
  72:source/main.c ****             if(button_pressed == 1)
  73:source/main.c ****             {
  74:source/main.c ****                 // Setting state to SAMPLING_STATE when button is pressed
  75:source/main.c ****                 state = SAMPLING_STATE;
  76:source/main.c ****                 button_pressed = 0;               
  77:source/main.c ****             }
  78:source/main.c ****         break;
  79:source/main.c ****             
  80:source/main.c ****         case SAMPLING_STATE:
  81:source/main.c ****             // Handle LED states
  82:source/main.c ****             Red_LED_Write(0);
  83:source/main.c ****             Yellow_LED_Write(1);     
  84:source/main.c ****             Green_LED_Write(0);
  85:source/main.c ****             // ADC conversion and storing data in array
  86:source/main.c ****             for(int i = 0; i < 1024; i++)
  87:source/main.c ****             {
ARM GAS  C:\Users\saman\AppData\Local\Temp\cctTY7nk.s 			page 3


  88:source/main.c ****                 ADC_IsEndConversion(ADC_WAIT_FOR_RESULT);                  
  89:source/main.c ****                 ADC_Array[i] = (uint16_t)ADC_GetResult32();
  90:source/main.c ****             }
  91:source/main.c ****             // Setting state to UART_TRANSFER_STATE if 's' received from MATLAB
  92:source/main.c ****             if(sReceived)
  93:source/main.c ****             {             
  94:source/main.c ****                 state = UART_TRANSFER_STATE;
  95:source/main.c ****                 sReceived = 0;
  96:source/main.c ****             }
  97:source/main.c ****         break;
  98:source/main.c ****             
  99:source/main.c ****         case UART_TRANSFER_STATE:
 100:source/main.c ****             // Handle LED states
 101:source/main.c ****             Red_LED_Write(0);
 102:source/main.c ****             Yellow_LED_Write(0);     
 103:source/main.c ****             Green_LED_Write(1);
 104:source/main.c ****             // Transfer ADC data to MATLAB
 105:source/main.c ****             for(int i = 0; i < 1024; i++)
 106:source/main.c ****             {
 107:source/main.c ****                 UART_PutChar(ADC_Array[i]);
 108:source/main.c ****                 UART_PutChar(ADC_Array[i]>>8);
 109:source/main.c ****             }
 110:source/main.c ****             // FFT calculation of ADC data
 111:source/main.c ****             fft_app(ADC_Array,FFT_SamplesArray,1024);
 112:source/main.c ****             
 113:source/main.c ****             // Transfer FFT data to MATLAB
 114:source/main.c ****             for(int32 idx = 0; idx < 2048; idx++)
 115:source/main.c ****             {
 116:source/main.c ****                 UART_PutChar(FFT_SamplesArray[idx]);
 117:source/main.c ****                 UART_PutChar(FFT_SamplesArray[idx]>>8);
 118:source/main.c ****                 UART_PutChar(FFT_SamplesArray[idx]>>16);
 119:source/main.c ****                 UART_PutChar(FFT_SamplesArray[idx]>>24);
 120:source/main.c ****             }
 121:source/main.c ****             // Increment count
 122:source/main.c ****             count++;                
 123:source/main.c ****             
 124:source/main.c ****             // Move to next transfer if count < 10
 125:source/main.c ****             if((count < 10) && oReceived)
 126:source/main.c ****             {
 127:source/main.c ****                 state = SAMPLING_STATE;
 128:source/main.c ****                 oReceived = 0;
 129:source/main.c ****             }
 130:source/main.c ****             // Setting state to IDLE_STATE when count is 10
 131:source/main.c ****             else if((count == 10) && oReceived)
 132:source/main.c ****             {
 133:source/main.c ****                 // Handle LED states
 134:source/main.c ****                 Red_LED_Write(0);
 135:source/main.c ****                 Yellow_LED_Write(0);     
 136:source/main.c ****                 Green_LED_Write(0);
 137:source/main.c ****                 state = IDLE_STATE;  
 138:source/main.c ****                 oReceived = 0;
 139:source/main.c ****             }
 140:source/main.c ****             else // Stay in same state
 141:source/main.c ****             {
 142:source/main.c ****                 state = UART_TRANSFER_STATE;  
 143:source/main.c ****                 oReceived = 0; 
 144:source/main.c ****             }
ARM GAS  C:\Users\saman\AppData\Local\Temp\cctTY7nk.s 			page 4


 145:source/main.c ****         break;
 146:source/main.c ****             
 147:source/main.c ****         default:
 148:source/main.c ****         break;
 149:source/main.c ****     }   
 150:source/main.c **** }
 151:source/main.c **** 
 152:source/main.c ****     
 153:source/main.c **** CY_ISR(isr_button_RisingEdge_Interrupt)
 154:source/main.c **** {
  28              		.loc 1 154 0
  29              		.cfi_startproc
  30              		@ args = 0, pretend = 0, frame = 0
  31              		@ frame_needed = 0, uses_anonymous_args = 0
  32 0000 08B5     		push	{r3, lr}
  33              		.cfi_def_cfa_offset 8
  34              		.cfi_offset 3, -8
  35              		.cfi_offset 14, -4
 155:source/main.c ****     // Update button_pressed variable based on push button
 156:source/main.c ****     Push_button_ClearInterrupt();
  36              		.loc 1 156 0
  37 0002 FFF7FEFF 		bl	Push_button_ClearInterrupt
  38              	.LVL0:
 157:source/main.c ****     
 158:source/main.c ****     if(button_pressed == 0)
  39              		.loc 1 158 0
  40 0006 044B     		ldr	r3, .L4
  41 0008 1B78     		ldrb	r3, [r3]	@ zero_extendqisi2
  42 000a 13F0FF0F 		tst	r3, #255
  43 000e 02D1     		bne	.L1
 159:source/main.c ****     {
 160:source/main.c ****         button_pressed = 1;
  44              		.loc 1 160 0
  45 0010 0122     		movs	r2, #1
  46 0012 014B     		ldr	r3, .L4
  47 0014 1A70     		strb	r2, [r3]
  48              	.L1:
  49 0016 08BD     		pop	{r3, pc}
  50              	.L5:
  51              		.align	2
  52              	.L4:
  53 0018 00000000 		.word	.LANCHOR0
  54              		.cfi_endproc
  55              	.LFE121:
  56              		.size	isr_button_RisingEdge_Interrupt, .-isr_button_RisingEdge_Interrupt
  57              		.section	.text.isr_UART,"ax",%progbits
  58              		.align	2
  59              		.global	isr_UART
  60              		.thumb
  61              		.thumb_func
  62              		.type	isr_UART, %function
  63              	isr_UART:
  64              	.LFB122:
 161:source/main.c ****     }
 162:source/main.c **** }
 163:source/main.c **** 
 164:source/main.c **** CY_ISR(isr_UART)
ARM GAS  C:\Users\saman\AppData\Local\Temp\cctTY7nk.s 			page 5


 165:source/main.c **** {
  65              		.loc 1 165 0
  66              		.cfi_startproc
  67              		@ args = 0, pretend = 0, frame = 0
  68              		@ frame_needed = 0, uses_anonymous_args = 0
  69 0000 08B5     		push	{r3, lr}
  70              		.cfi_def_cfa_offset 8
  71              		.cfi_offset 3, -8
  72              		.cfi_offset 14, -4
 166:source/main.c ****     // Set character flags based on character received from MATLAB
 167:source/main.c ****     RxMatlab = UART_GetChar();
  73              		.loc 1 167 0
  74 0002 FFF7FEFF 		bl	UART_GetChar
  75              	.LVL1:
  76 0006 064B     		ldr	r3, .L10
  77 0008 1870     		strb	r0, [r3]
 168:source/main.c ****     if(RxMatlab == 's')
  78              		.loc 1 168 0
  79 000a 7328     		cmp	r0, #115
  80 000c 02D1     		bne	.L7
 169:source/main.c ****     {
 170:source/main.c ****         sReceived = 1;
  81              		.loc 1 170 0
  82 000e 0122     		movs	r2, #1
  83 0010 044B     		ldr	r3, .L10+4
  84 0012 5A70     		strb	r2, [r3, #1]
  85              	.L7:
 171:source/main.c ****     }
 172:source/main.c ****     if(RxMatlab == 'o')
  86              		.loc 1 172 0
  87 0014 6F28     		cmp	r0, #111
  88 0016 02D1     		bne	.L6
 173:source/main.c ****     {
 174:source/main.c ****         oReceived = 1;
  89              		.loc 1 174 0
  90 0018 0122     		movs	r2, #1
  91 001a 024B     		ldr	r3, .L10+4
  92 001c 9A70     		strb	r2, [r3, #2]
  93              	.L6:
  94 001e 08BD     		pop	{r3, pc}
  95              	.L11:
  96              		.align	2
  97              	.L10:
  98 0020 00000000 		.word	RxMatlab
  99 0024 00000000 		.word	.LANCHOR0
 100              		.cfi_endproc
 101              	.LFE122:
 102              		.size	isr_UART, .-isr_UART
 103              		.section	.text.stateMachine,"ax",%progbits
 104              		.align	2
 105              		.global	stateMachine
 106              		.thumb
 107              		.thumb_func
 108              		.type	stateMachine, %function
 109              	stateMachine:
 110              	.LFB120:
  62:source/main.c ****     switch(state)
ARM GAS  C:\Users\saman\AppData\Local\Temp\cctTY7nk.s 			page 6


 111              		.loc 1 62 0
 112              		.cfi_startproc
 113              		@ args = 0, pretend = 0, frame = 0
 114              		@ frame_needed = 0, uses_anonymous_args = 0
 115 0000 38B5     		push	{r3, r4, r5, lr}
 116              		.cfi_def_cfa_offset 16
 117              		.cfi_offset 3, -16
 118              		.cfi_offset 4, -12
 119              		.cfi_offset 5, -8
 120              		.cfi_offset 14, -4
  63:source/main.c ****     {
 121              		.loc 1 63 0
 122 0002 514B     		ldr	r3, .L26
 123 0004 DB78     		ldrb	r3, [r3, #3]	@ zero_extendqisi2
 124 0006 012B     		cmp	r3, #1
 125 0008 19D0     		beq	.L14
 126 000a 13B1     		cbz	r3, .L15
 127 000c 022B     		cmp	r3, #2
 128 000e 38D0     		beq	.L16
 129 0010 38BD     		pop	{r3, r4, r5, pc}
 130              	.L15:
  66:source/main.c ****             // Handle LED states
 131              		.loc 1 66 0
 132 0012 4D4D     		ldr	r5, .L26
 133 0014 0024     		movs	r4, #0
 134 0016 2C71     		strb	r4, [r5, #4]
  68:source/main.c ****             Yellow_LED_Write(0);     
 135              		.loc 1 68 0
 136 0018 0120     		movs	r0, #1
 137 001a FFF7FEFF 		bl	Red_LED_Write
 138              	.LVL2:
  69:source/main.c ****             Green_LED_Write(0);
 139              		.loc 1 69 0
 140 001e 2046     		mov	r0, r4
 141 0020 FFF7FEFF 		bl	Yellow_LED_Write
 142              	.LVL3:
  70:source/main.c ****             
 143              		.loc 1 70 0
 144 0024 2046     		mov	r0, r4
 145 0026 FFF7FEFF 		bl	Green_LED_Write
 146              	.LVL4:
  72:source/main.c ****             {
 147              		.loc 1 72 0
 148 002a 2B78     		ldrb	r3, [r5]	@ zero_extendqisi2
 149 002c DBB2     		uxtb	r3, r3
 150 002e 012B     		cmp	r3, #1
 151 0030 40F08880 		bne	.L12
  75:source/main.c ****                 button_pressed = 0;               
 152              		.loc 1 75 0
 153 0034 2B46     		mov	r3, r5
 154 0036 0122     		movs	r2, #1
 155 0038 EA70     		strb	r2, [r5, #3]
  76:source/main.c ****             }
 156              		.loc 1 76 0
 157 003a 1C70     		strb	r4, [r3]
 158 003c 38BD     		pop	{r3, r4, r5, pc}
 159              	.L14:
ARM GAS  C:\Users\saman\AppData\Local\Temp\cctTY7nk.s 			page 7


  82:source/main.c ****             Yellow_LED_Write(1);     
 160              		.loc 1 82 0
 161 003e 0020     		movs	r0, #0
 162 0040 FFF7FEFF 		bl	Red_LED_Write
 163              	.LVL5:
  83:source/main.c ****             Green_LED_Write(0);
 164              		.loc 1 83 0
 165 0044 0120     		movs	r0, #1
 166 0046 FFF7FEFF 		bl	Yellow_LED_Write
 167              	.LVL6:
  84:source/main.c ****             // ADC conversion and storing data in array
 168              		.loc 1 84 0
 169 004a 0020     		movs	r0, #0
 170 004c FFF7FEFF 		bl	Green_LED_Write
 171              	.LVL7:
 172              	.LBB2:
  86:source/main.c ****             {
 173              		.loc 1 86 0
 174 0050 0024     		movs	r4, #0
 175 0052 09E0     		b	.L17
 176              	.LVL8:
 177              	.L18:
  88:source/main.c ****                 ADC_Array[i] = (uint16_t)ADC_GetResult32();
 178              		.loc 1 88 0 discriminator 3
 179 0054 0020     		movs	r0, #0
 180 0056 FFF7FEFF 		bl	ADC_IsEndConversion
 181              	.LVL9:
  89:source/main.c ****             }
 182              		.loc 1 89 0 discriminator 3
 183 005a FFF7FEFF 		bl	ADC_GetResult32
 184              	.LVL10:
 185 005e 3A4B     		ldr	r3, .L26
 186 0060 03EB4403 		add	r3, r3, r4, lsl #1
 187 0064 1881     		strh	r0, [r3, #8]	@ movhi
  86:source/main.c ****             {
 188              		.loc 1 86 0 discriminator 3
 189 0066 0134     		adds	r4, r4, #1
 190              	.LVL11:
 191              	.L17:
  86:source/main.c ****             {
 192              		.loc 1 86 0 is_stmt 0 discriminator 1
 193 0068 B4F5806F 		cmp	r4, #1024
 194 006c F2DB     		blt	.L18
 195              	.LBE2:
  92:source/main.c ****             {             
 196              		.loc 1 92 0 is_stmt 1
 197 006e 364B     		ldr	r3, .L26
 198 0070 5B78     		ldrb	r3, [r3, #1]	@ zero_extendqisi2
 199 0072 002B     		cmp	r3, #0
 200 0074 66D0     		beq	.L12
  94:source/main.c ****                 sReceived = 0;
 201              		.loc 1 94 0
 202 0076 344B     		ldr	r3, .L26
 203 0078 0222     		movs	r2, #2
 204 007a DA70     		strb	r2, [r3, #3]
  95:source/main.c ****             }
 205              		.loc 1 95 0
ARM GAS  C:\Users\saman\AppData\Local\Temp\cctTY7nk.s 			page 8


 206 007c 0022     		movs	r2, #0
 207 007e 5A70     		strb	r2, [r3, #1]
 208 0080 38BD     		pop	{r3, r4, r5, pc}
 209              	.LVL12:
 210              	.L16:
 101:source/main.c ****             Yellow_LED_Write(0);     
 211              		.loc 1 101 0
 212 0082 0020     		movs	r0, #0
 213 0084 FFF7FEFF 		bl	Red_LED_Write
 214              	.LVL13:
 102:source/main.c ****             Green_LED_Write(1);
 215              		.loc 1 102 0
 216 0088 0020     		movs	r0, #0
 217 008a FFF7FEFF 		bl	Yellow_LED_Write
 218              	.LVL14:
 103:source/main.c ****             // Transfer ADC data to MATLAB
 219              		.loc 1 103 0
 220 008e 0120     		movs	r0, #1
 221 0090 FFF7FEFF 		bl	Green_LED_Write
 222              	.LVL15:
 223              	.LBB3:
 105:source/main.c ****             {
 224              		.loc 1 105 0
 225 0094 0025     		movs	r5, #0
 226 0096 0AE0     		b	.L19
 227              	.LVL16:
 228              	.L20:
 107:source/main.c ****                 UART_PutChar(ADC_Array[i]>>8);
 229              		.loc 1 107 0 discriminator 3
 230 0098 2B4C     		ldr	r4, .L26
 231 009a 04EB4504 		add	r4, r4, r5, lsl #1
 232 009e 207A     		ldrb	r0, [r4, #8]	@ zero_extendqisi2
 233 00a0 FFF7FEFF 		bl	UART_PutChar
 234              	.LVL17:
 108:source/main.c ****             }
 235              		.loc 1 108 0 discriminator 3
 236 00a4 2089     		ldrh	r0, [r4, #8]
 237 00a6 000A     		lsrs	r0, r0, #8
 238 00a8 FFF7FEFF 		bl	UART_PutChar
 239              	.LVL18:
 105:source/main.c ****             {
 240              		.loc 1 105 0 discriminator 3
 241 00ac 0135     		adds	r5, r5, #1
 242              	.LVL19:
 243              	.L19:
 105:source/main.c ****             {
 244              		.loc 1 105 0 is_stmt 0 discriminator 1
 245 00ae B5F5806F 		cmp	r5, #1024
 246 00b2 F1DB     		blt	.L20
 247              	.LBE3:
 111:source/main.c ****             
 248              		.loc 1 111 0 is_stmt 1
 249 00b4 2448     		ldr	r0, .L26
 250 00b6 4FF48062 		mov	r2, #1024
 251 00ba 00F60801 		addw	r1, r0, #2056
 252 00be 0830     		adds	r0, r0, #8
 253 00c0 FFF7FEFF 		bl	fft_app
ARM GAS  C:\Users\saman\AppData\Local\Temp\cctTY7nk.s 			page 9


 254              	.LVL20:
 255              	.LBB4:
 114:source/main.c ****             {
 256              		.loc 1 114 0
 257 00c4 0025     		movs	r5, #0
 258              	.LVL21:
 259 00c6 13E0     		b	.L21
 260              	.LVL22:
 261              	.L22:
 116:source/main.c ****                 UART_PutChar(FFT_SamplesArray[idx]>>8);
 262              		.loc 1 116 0 discriminator 3
 263 00c8 1F4C     		ldr	r4, .L26
 264 00ca 04EB8504 		add	r4, r4, r5, lsl #2
 265 00ce 94F80808 		ldrb	r0, [r4, #2056]	@ zero_extendqisi2
 266 00d2 FFF7FEFF 		bl	UART_PutChar
 267              	.LVL23:
 117:source/main.c ****                 UART_PutChar(FFT_SamplesArray[idx]>>16);
 268              		.loc 1 117 0 discriminator 3
 269 00d6 94F80908 		ldrb	r0, [r4, #2057]	@ zero_extendqisi2
 270 00da FFF7FEFF 		bl	UART_PutChar
 271              	.LVL24:
 118:source/main.c ****                 UART_PutChar(FFT_SamplesArray[idx]>>24);
 272              		.loc 1 118 0 discriminator 3
 273 00de 94F80A08 		ldrb	r0, [r4, #2058]	@ zero_extendqisi2
 274 00e2 FFF7FEFF 		bl	UART_PutChar
 275              	.LVL25:
 119:source/main.c ****             }
 276              		.loc 1 119 0 discriminator 3
 277 00e6 94F80B08 		ldrb	r0, [r4, #2059]	@ zero_extendqisi2
 278 00ea FFF7FEFF 		bl	UART_PutChar
 279              	.LVL26:
 114:source/main.c ****             {
 280              		.loc 1 114 0 discriminator 3
 281 00ee 0135     		adds	r5, r5, #1
 282              	.LVL27:
 283              	.L21:
 114:source/main.c ****             {
 284              		.loc 1 114 0 is_stmt 0 discriminator 1
 285 00f0 B5F5006F 		cmp	r5, #2048
 286 00f4 E8DB     		blt	.L22
 287              	.LBE4:
 122:source/main.c ****             
 288              		.loc 1 122 0 is_stmt 1
 289 00f6 144A     		ldr	r2, .L26
 290 00f8 1379     		ldrb	r3, [r2, #4]	@ zero_extendqisi2
 291 00fa 0133     		adds	r3, r3, #1
 292 00fc DBB2     		uxtb	r3, r3
 293 00fe 1371     		strb	r3, [r2, #4]
 125:source/main.c ****             {
 294              		.loc 1 125 0
 295 0100 092B     		cmp	r3, #9
 296 0102 07D8     		bhi	.L23
 125:source/main.c ****             {
 297              		.loc 1 125 0 is_stmt 0 discriminator 1
 298 0104 9278     		ldrb	r2, [r2, #2]	@ zero_extendqisi2
 299 0106 2AB1     		cbz	r2, .L23
 127:source/main.c ****                 oReceived = 0;
ARM GAS  C:\Users\saman\AppData\Local\Temp\cctTY7nk.s 			page 10


 300              		.loc 1 127 0 is_stmt 1
 301 0108 0F4B     		ldr	r3, .L26
 302 010a 0122     		movs	r2, #1
 303 010c DA70     		strb	r2, [r3, #3]
 128:source/main.c ****             }
 304              		.loc 1 128 0
 305 010e 0022     		movs	r2, #0
 306 0110 9A70     		strb	r2, [r3, #2]
 307 0112 38BD     		pop	{r3, r4, r5, pc}
 308              	.LVL28:
 309              	.L23:
 131:source/main.c ****             {
 310              		.loc 1 131 0
 311 0114 0A2B     		cmp	r3, #10
 312 0116 10D1     		bne	.L24
 131:source/main.c ****             {
 313              		.loc 1 131 0 is_stmt 0 discriminator 1
 314 0118 0B4B     		ldr	r3, .L26
 315 011a 9B78     		ldrb	r3, [r3, #2]	@ zero_extendqisi2
 316 011c 6BB1     		cbz	r3, .L24
 134:source/main.c ****                 Yellow_LED_Write(0);     
 317              		.loc 1 134 0 is_stmt 1
 318 011e 0020     		movs	r0, #0
 319 0120 FFF7FEFF 		bl	Red_LED_Write
 320              	.LVL29:
 135:source/main.c ****                 Green_LED_Write(0);
 321              		.loc 1 135 0
 322 0124 0020     		movs	r0, #0
 323 0126 FFF7FEFF 		bl	Yellow_LED_Write
 324              	.LVL30:
 136:source/main.c ****                 state = IDLE_STATE;  
 325              		.loc 1 136 0
 326 012a 0020     		movs	r0, #0
 327 012c FFF7FEFF 		bl	Green_LED_Write
 328              	.LVL31:
 137:source/main.c ****                 oReceived = 0;
 329              		.loc 1 137 0
 330 0130 054B     		ldr	r3, .L26
 331 0132 0022     		movs	r2, #0
 332 0134 DA70     		strb	r2, [r3, #3]
 138:source/main.c ****             }
 333              		.loc 1 138 0
 334 0136 9A70     		strb	r2, [r3, #2]
 335 0138 38BD     		pop	{r3, r4, r5, pc}
 336              	.LVL32:
 337              	.L24:
 142:source/main.c ****                 oReceived = 0; 
 338              		.loc 1 142 0
 339 013a 034B     		ldr	r3, .L26
 340 013c 0222     		movs	r2, #2
 341 013e DA70     		strb	r2, [r3, #3]
 143:source/main.c ****             }
 342              		.loc 1 143 0
 343 0140 0022     		movs	r2, #0
 344 0142 9A70     		strb	r2, [r3, #2]
 345              	.LVL33:
 346              	.L12:
ARM GAS  C:\Users\saman\AppData\Local\Temp\cctTY7nk.s 			page 11


 347 0144 38BD     		pop	{r3, r4, r5, pc}
 348              	.L27:
 349 0146 00BF     		.align	2
 350              	.L26:
 351 0148 00000000 		.word	.LANCHOR0
 352              		.cfi_endproc
 353              	.LFE120:
 354              		.size	stateMachine, .-stateMachine
 355              		.section	.text.main,"ax",%progbits
 356              		.align	2
 357              		.global	main
 358              		.thumb
 359              		.thumb_func
 360              		.type	main, %function
 361              	main:
 362              	.LFB119:
  43:source/main.c ****     CyGlobalIntEnable; /* Enable global interrupts. */
 363              		.loc 1 43 0
 364              		.cfi_startproc
 365              		@ Volatile: function does not return.
 366              		@ args = 0, pretend = 0, frame = 0
 367              		@ frame_needed = 0, uses_anonymous_args = 0
 368 0000 08B5     		push	{r3, lr}
 369              		.cfi_def_cfa_offset 8
 370              		.cfi_offset 3, -8
 371              		.cfi_offset 14, -4
  44:source/main.c ****     
 372              		.loc 1 44 0
 373              		.syntax unified
 374              	@ 44 "source\main.c" 1
 375 0002 62B6     		CPSIE   i
 376              	@ 0 "" 2
  46:source/main.c ****     isr_UART_StartEx(isr_UART);
 377              		.loc 1 46 0
 378              		.thumb
 379              		.syntax unified
 380 0004 0848     		ldr	r0, .L31
 381 0006 FFF7FEFF 		bl	isr_button_StartEx
 382              	.LVL34:
  47:source/main.c ****     
 383              		.loc 1 47 0
 384 000a 0848     		ldr	r0, .L31+4
 385 000c FFF7FEFF 		bl	isr_UART_StartEx
 386              	.LVL35:
  50:source/main.c ****     WaveDAC_Start();
 387              		.loc 1 50 0
 388 0010 FFF7FEFF 		bl	UART_Start
 389              	.LVL36:
  51:source/main.c ****     ADC_Start();
 390              		.loc 1 51 0
 391 0014 FFF7FEFF 		bl	WaveDAC_Start
 392              	.LVL37:
  52:source/main.c ****     ADC_StartConvert();
 393              		.loc 1 52 0
 394 0018 FFF7FEFF 		bl	ADC_Start
 395              	.LVL38:
  53:source/main.c ****     
ARM GAS  C:\Users\saman\AppData\Local\Temp\cctTY7nk.s 			page 12


 396              		.loc 1 53 0
 397 001c FFF7FEFF 		bl	ADC_StartConvert
 398              	.LVL39:
 399              	.L29:
  57:source/main.c ****     }
 400              		.loc 1 57 0 discriminator 1
 401 0020 FFF7FEFF 		bl	stateMachine
 402              	.LVL40:
 403 0024 FCE7     		b	.L29
 404              	.L32:
 405 0026 00BF     		.align	2
 406              	.L31:
 407 0028 00000000 		.word	isr_button_RisingEdge_Interrupt
 408 002c 00000000 		.word	isr_UART
 409              		.cfi_endproc
 410              	.LFE119:
 411              		.size	main, .-main
 412              		.global	FFT_SamplesArray
 413              		.global	state
 414              		.global	ADC_Array
 415              		.global	count
 416              		.comm	RxMatlab,1,1
 417              		.global	oReceived
 418              		.global	sReceived
 419              		.global	button_pressed
 420              		.bss
 421              		.align	2
 422              		.set	.LANCHOR0,. + 0
 423              		.type	button_pressed, %object
 424              		.size	button_pressed, 1
 425              	button_pressed:
 426 0000 00       		.space	1
 427              		.type	sReceived, %object
 428              		.size	sReceived, 1
 429              	sReceived:
 430 0001 00       		.space	1
 431              		.type	oReceived, %object
 432              		.size	oReceived, 1
 433              	oReceived:
 434 0002 00       		.space	1
 435              		.type	state, %object
 436              		.size	state, 1
 437              	state:
 438 0003 00       		.space	1
 439              		.type	count, %object
 440              		.size	count, 1
 441              	count:
 442 0004 00       		.space	1
 443 0005 000000   		.space	3
 444              		.type	ADC_Array, %object
 445              		.size	ADC_Array, 2048
 446              	ADC_Array:
 447 0008 00000000 		.space	2048
 447      00000000 
 447      00000000 
 447      00000000 
 447      00000000 
ARM GAS  C:\Users\saman\AppData\Local\Temp\cctTY7nk.s 			page 13


 448              		.type	FFT_SamplesArray, %object
 449              		.size	FFT_SamplesArray, 8192
 450              	FFT_SamplesArray:
 451 0808 00000000 		.space	8192
 451      00000000 
 451      00000000 
 451      00000000 
 451      00000000 
 452              		.text
 453              	.Letext0:
 454              		.file 2 "c:\\program files (x86)\\cypress\\psoc creator\\4.4\\psoc creator\\import\\gnu\\arm\\5.4.
 455              		.file 3 "c:\\program files (x86)\\cypress\\psoc creator\\4.4\\psoc creator\\import\\gnu\\arm\\5.4.
 456              		.file 4 "Generated_Source\\PSoC5/cytypes.h"
 457              		.file 5 "Generated_Source\\PSoC5/core_cm3.h"
 458              		.file 6 "Generated_Source\\PSoC5/Push_button.h"
 459              		.file 7 "Generated_Source\\PSoC5/UART.h"
 460              		.file 8 "Generated_Source\\PSoC5/ADC.h"
 461              		.file 9 "Generated_Source\\PSoC5/Red_LED.h"
 462              		.file 10 "Generated_Source\\PSoC5/Yellow_LED.h"
 463              		.file 11 "Generated_Source\\PSoC5/Green_LED.h"
 464              		.file 12 ".\\source\\fft_application/fft_application.h"
 465              		.file 13 "Generated_Source\\PSoC5/isr_button.h"
 466              		.file 14 "Generated_Source\\PSoC5/isr_UART.h"
 467              		.file 15 "Generated_Source\\PSoC5/WaveDAC.h"